target datalayout = "e-m:e-p270:32:32-p271:32:32-p272:64:64-i64:64-i128:128-f80:128-n8:16:32:64-S128"
target triple = "x86_64-pc-linux-gnu"

@_ZN6icu_7718NullTransliteratorC1Ev = unnamed_addr alias void (ptr), ptr @_ZN6icu_7718NullTransliteratorC2Ev

; Function Attrs: mustprogress uwtable
define noundef ptr @_ZNK6icu_7718NullTransliterator5cloneEv(ptr noundef nonnull align 8 dereferenceable(84) %0) unnamed_addr #1 align 2 personality ptr @__gxx_personality_v0 {
  %2 = alloca ptr, align 8
  %3 = alloca i1, align 1
  %4 = alloca ptr, align 8
  %5 = alloca i32, align 4
  store ptr %0, ptr %2, align 8, !tbaa !3
  %6 = call noundef ptr @_ZN6icu_777UMemorynwEm(i64 noundef 88) #6
  %7 = icmp eq ptr %6, null
  store i1 false, ptr %3, align 1
  br i1 %7, label %10, label %8

8:                                                ; preds = %1
  store i1 true, ptr %3, align 1
  invoke void @_ZN6icu_7718NullTransliteratorC1Ev(ptr noundef nonnull align 8 dereferenceable(84) %6)
          to label %9 unwind label %12

9:                                                ; preds = %8
  br label %10

10:                                               ; preds = %9, %1
  %11 = phi ptr [ %6, %9 ], [ null, %1 ]
  ret ptr %11

12:                                               ; preds = %8
  %13 = landingpad { ptr, i32 }
          cleanup
  %14 = extractvalue { ptr, i32 } %13, 0
  store ptr %14, ptr %4, align 8
  %15 = extractvalue { ptr, i32 } %13, 1
  store i32 %15, ptr %5, align 4
  %16 = load i1, ptr %3, align 1
  br i1 %16, label %17, label %18

17:                                               ; preds = %12
  call void @_ZN6icu_777UMemorydlEPv(ptr noundef %6) #6
  br label %18

18:                                               ; preds = %17, %12
  br label %19

19:                                               ; preds = %18
  %20 = load ptr, ptr %4, align 8
  %21 = load i32, ptr %5, align 4
  %22 = insertvalue { ptr, i32 } poison, ptr %20, 0
  %23 = insertvalue { ptr, i32 } %22, i32 %21, 1
  resume { ptr, i32 } %23
}